target datalayout = "e-m:e-p270:32:32-p271:32:32-p272:64:64-i64:64-i128:128-f80:128-n8:16:32:64-S128"
target triple = "x86_64-pc-linux-gnu"

%struct._object = type { %union.anon, ptr }
%union.anon = type { i64 }
%struct.PyDescrObject = type { %struct._object, ptr, ptr, ptr }
%struct.wrapperbase = type { ptr, i32, ptr, ptr, ptr, i32, ptr }
%struct.PyWrapperDescrObject = type { %struct.PyDescrObject, ptr, ptr }
%struct.wrapperobject = type { %struct._object, ptr, ptr }

; Function Attrs: nounwind uwtable
define internal ptr @wrapper_doc(ptr noundef %0, ptr noundef %1) #0 {
  %3 = alloca ptr, align 8
  %4 = alloca ptr, align 8
  %5 = alloca ptr, align 8
  store ptr %0, ptr %3, align 8, !tbaa !4
  store ptr %1, ptr %4, align 8, !tbaa !9
  call void @llvm.lifetime.start.p0(i64 8, ptr %5) #6
  %6 = load ptr, ptr %3, align 8, !tbaa !4
  store ptr %6, ptr %5, align 8, !tbaa !9
  %7 = load ptr, ptr %5, align 8, !tbaa !9
  %8 = getelementptr inbounds nuw %struct.wrapperobject, ptr %7, i32 0, i32 1
  %9 = load ptr, ptr %8, align 8, !tbaa !148
  %10 = getelementptr inbounds nuw %struct.PyWrapperDescrObject, ptr %9, i32 0, i32 1
  %11 = load ptr, ptr %10, align 8, !tbaa !60
  %12 = getelementptr inbounds nuw %struct.wrapperbase, ptr %11, i32 0, i32 0
  %13 = load ptr, ptr %12, align 8, !tbaa !58
  %14 = load ptr, ptr %5, align 8, !tbaa !9
  %15 = getelementptr inbounds nuw %struct.wrapperobject, ptr %14, i32 0, i32 1
  %16 = load ptr, ptr %15, align 8, !tbaa !148
  %17 = getelementptr inbounds nuw %struct.PyWrapperDescrObject, ptr %16, i32 0, i32 1
  %18 = load ptr, ptr %17, align 8, !tbaa !60
  %19 = getelementptr inbounds nuw %struct.wrapperbase, ptr %18, i32 0, i32 4
  %20 = load ptr, ptr %19, align 8, !tbaa !171
  %21 = call ptr @_PyType_GetDocFromInternalDoc(ptr noundef %13, ptr noundef %20)
  call void @llvm.lifetime.end.p0(i64 8, ptr %5) #6
  ret ptr %21
}