; Function Attrs: nounwind uwtable
define internal ptr @wrapper_doc(ptr noundef readonly captures(none) %0, ptr readnone captures(none) %1) #0 {
  %3 = getelementptr inbounds nuw i8, ptr %0, i64 16
  %4 = load ptr, ptr %3, align 8, !tbaa !60
  %5 = getelementptr inbounds nuw i8, ptr %4, i64 40
  %6 = load ptr, ptr %5, align 8, !tbaa !48
  %7 = load ptr, ptr %6, align 8, !tbaa !59
  %8 = getelementptr inbounds nuw i8, ptr %6, i64 32
  %9 = load ptr, ptr %8, align 8, !tbaa !163
  %10 = tail call ptr @_PyType_GetDocFromInternalDoc(ptr noundef %7, ptr noundef %9) #9
  ret ptr %10
}